target datalayout = "e-m:e-p270:32:32-p271:32:32-p272:64:64-i64:64-i128:128-f80:128-n8:16:32:64-S128"
target triple = "x86_64-pc-linux-gnu"

%struct.jit_State = type { %struct.GCtrace, ptr, ptr, ptr, ptr, ptr, ptr, i32, i32, i32, i8, i8, %struct.IRType1, i8, %struct.FoldState, ptr, i32, i32, i32, i32, i32, i32, i32, [1 x i32], [5 x %union.TValue], [3 x %union.TValue], ptr, i32, i32, i32, i32, ptr, ptr, i32, i32, i8, ptr, i32, i32, i16, [101 x i16], [258 x i32], [15 x i32], [16 x ptr], [64 x %struct.HotPenalty], i32, [16 x %struct.BPropEntry], i32, %struct.ScEvEntry, ptr, i32, i32, i32, ptr, i32, i32, ptr, ptr, ptr, i64, i64, %union.TValue, ptr, i32, i32 }
%struct.GCtrace = type { %struct.GCRef, i8, i8, i16, i32, i32, %struct.GCRef, ptr, i32, i32, ptr, ptr, %struct.GCRef, %struct.MRef, i32, i32, ptr, i32, i16, i16, i16, i16, i16, i16, i16, i8, i8, i8, i8 }
%struct.GCRef = type { i64 }
%struct.MRef = type { i64 }
%struct.IRType1 = type { i8 }
%struct.FoldState = type { %union.IRIns, [2 x %union.IRIns], [2 x %union.IRIns] }
%union.IRIns = type { %struct.GCRef }
%struct.HotPenalty = type { %struct.MRef, i16, i16 }
%struct.BPropEntry = type { i16, i16, i32 }
%struct.ScEvEntry = type { %struct.MRef, i16, i16, i16, i16, %struct.IRType1, i8 }
%union.TValue = type { i64 }
%struct.anon.0 = type { i32, %struct.IRType1, i8, i8, i8 }
%struct.GCcdata = type { %struct.GCRef, i8, i8, i16 }

; Function Attrs: nounwind uwtable
define internal i32 @fold_fload_cdata_int64_kgc(ptr noundef %0) #0 {
  %2 = alloca i32, align 4
  %3 = alloca ptr, align 8
  %4 = alloca ptr, align 8
  %5 = alloca i32, align 4
  store ptr %0, ptr %3, align 8, !tbaa !4
  %6 = load ptr, ptr %3, align 8, !tbaa !4
  %7 = getelementptr inbounds nuw %struct.jit_State, ptr %6, i32 0, i32 7
  %8 = load i32, ptr %7, align 8, !tbaa !9
  %9 = and i32 %8, 65536
  %10 = icmp ne i32 %9, 0
  %11 = xor i1 %10, true
  %12 = xor i1 %11, true
  %13 = zext i1 %12 to i32
  %14 = sext i32 %13 to i64
  %15 = call i64 @llvm.expect.i64(i64 %14, i64 1)
  %16 = icmp ne i64 %15, 0
  br i1 %16, label %17, label %49

17:                                               ; preds = %1
  call void @llvm.lifetime.start.p0(i64 8, ptr %4) #8
  %18 = load ptr, ptr %3, align 8, !tbaa !4
  %19 = getelementptr inbounds nuw %struct.jit_State, ptr %18, i32 0, i32 14
  %20 = getelementptr inbounds nuw %struct.FoldState, ptr %19, i32 0, i32 1
  %21 = getelementptr inbounds [2 x %union.IRIns], ptr %20, i64 0, i64 1
  %22 = getelementptr inbounds nuw %struct.GCRef, ptr %21, i32 0, i32 0
  %23 = load i64, ptr %22, align 8, !tbaa !29
  %24 = inttoptr i64 %23 to ptr
  %25 = getelementptr inbounds %struct.GCcdata, ptr %24, i64 1
  store ptr %25, ptr %4, align 8, !tbaa !34
  %26 = load ptr, ptr %3, align 8, !tbaa !4
  %27 = getelementptr inbounds nuw %struct.jit_State, ptr %26, i32 0, i32 14
  %28 = getelementptr inbounds nuw %struct.FoldState, ptr %27, i32 0, i32 0
  %29 = getelementptr inbounds nuw %struct.anon.0, ptr %28, i32 0, i32 1
  %30 = getelementptr inbounds nuw %struct.IRType1, ptr %29, i32 0, i32 0
  %31 = load i8, ptr %30, align 4, !tbaa !29
  %32 = zext i8 %31 to i32
  %33 = and i32 %32, 31
  %34 = lshr i32 6315993, %33
  %35 = and i32 %34, 1
  %36 = icmp ne i32 %35, 0
  br i1 %36, label %37, label %42

37:                                               ; preds = %17
  %38 = load ptr, ptr %3, align 8, !tbaa !4
  %39 = load ptr, ptr %4, align 8, !tbaa !34
  %40 = load i64, ptr %39, align 8, !tbaa !52
  %41 = call i32 @lj_ir_kint64(ptr noundef %38, i64 noundef %40)
  store i32 %41, ptr %2, align 4
  store i32 1, ptr %5, align 4
  br label %48

42:                                               ; preds = %17
  %43 = load ptr, ptr %4, align 8, !tbaa !34
  %44 = load i32, ptr %43, align 4, !tbaa !30
  %45 = load ptr, ptr %3, align 8, !tbaa !4
  %46 = getelementptr inbounds nuw %struct.jit_State, ptr %45, i32 0, i32 14
  %47 = getelementptr inbounds nuw %struct.FoldState, ptr %46, i32 0, i32 0
  store i32 %44, ptr %47, align 8, !tbaa !29
  store i32 2, ptr %2, align 4
  store i32 1, ptr %5, align 4
  br label %48

48:                                               ; preds = %42, %37
  call void @llvm.lifetime.end.p0(i64 8, ptr %4) #8
  br label %50

49:                                               ; preds = %1
  store i32 0, ptr %2, align 4
  br label %50

50:                                               ; preds = %49, %48
  %51 = load i32, ptr %2, align 4
  ret i32 %51
}