; Function Attrs: nounwind uwtable
define internal i32 @fold_fload_cdata_int64_kgc(ptr noundef %0) #0 {
  %2 = getelementptr inbounds nuw i8, ptr %0, i64 168
  %3 = load i32, ptr %2, align 8, !tbaa !4
  %4 = and i32 %3, 65536
  %.not = icmp eq i32 %4, 0
  br i1 %.not, label %22, label %5, !prof !33

5:                                                ; preds = %1
  %6 = getelementptr inbounds nuw i8, ptr %0, i64 200
  %7 = load i64, ptr %6, align 8, !tbaa !28
  %8 = inttoptr i64 %7 to ptr
  %9 = getelementptr inbounds nuw i8, ptr %8, i64 16
  %10 = getelementptr inbounds nuw i8, ptr %0, i64 188
  %11 = load i8, ptr %10, align 4, !tbaa !28
  %12 = and i8 %11, 31
  %13 = zext nneg i8 %12 to i32
  %14 = shl nuw i32 1, %13
  %15 = and i32 %14, 6315993
  %.not7 = icmp eq i32 %15, 0
  br i1 %.not7, label %19, label %16

16:                                               ; preds = %5
  %17 = load i64, ptr %9, align 8, !tbaa !80
  %18 = tail call i32 @lj_ir_kint64(ptr noundef nonnull %0, i64 noundef %17) #12
  br label %22

19:                                               ; preds = %5
  %20 = getelementptr inbounds nuw i8, ptr %0, i64 184
  %21 = load i32, ptr %9, align 4, !tbaa !31
  store i32 %21, ptr %20, align 8, !tbaa !28
  br label %22

22:                                               ; preds = %1, %16, %19
  %.1 = phi i32 [ %18, %16 ], [ 2, %19 ], [ 0, %1 ]
  ret i32 %.1
}